target datalayout = "e-m:e-p270:32:32-p271:32:32-p272:64:64-i64:64-i128:128-f80:128-n8:16:32:64-S128"
target triple = "x86_64-pc-linux-gnu"

; Function Attrs: nounwind uwtable
define internal void @intra_pred_lp_left(ptr noundef %0, ptr noundef %1, ptr noundef %2, i64 noundef %3) #0 {
  %5 = alloca ptr, align 8
  %6 = alloca ptr, align 8
  %7 = alloca ptr, align 8
  %8 = alloca i64, align 8
  %9 = alloca i32, align 4
  %10 = alloca i32, align 4
  store ptr %0, ptr %5, align 8, !tbaa !57
  store ptr %1, ptr %6, align 8, !tbaa !57
  store ptr %2, ptr %7, align 8, !tbaa !57
  store i64 %3, ptr %8, align 8, !tbaa !107
  call void @llvm.lifetime.start.p0(i64 4, ptr %9) #10
  call void @llvm.lifetime.start.p0(i64 4, ptr %10) #10
  store i32 0, ptr %10, align 4, !tbaa !9
  br label %11

11:                                               ; preds = %61, %4
  %12 = load i32, ptr %10, align 4, !tbaa !9
  %13 = icmp slt i32 %12, 8
  br i1 %13, label %14, label %64

14:                                               ; preds = %11
  store i32 0, ptr %9, align 4, !tbaa !9
  br label %15

15:                                               ; preds = %57, %14
  %16 = load i32, ptr %9, align 4, !tbaa !9
  %17 = icmp slt i32 %16, 8
  br i1 %17, label %18, label %60

18:                                               ; preds = %15
  %19 = load ptr, ptr %7, align 8, !tbaa !57
  %20 = load i32, ptr %10, align 4, !tbaa !9
  %21 = add nsw i32 %20, 1
  %22 = sub nsw i32 %21, 1
  %23 = sext i32 %22 to i64
  %24 = getelementptr inbounds i8, ptr %19, i64 %23
  %25 = load i8, ptr %24, align 1, !tbaa !27
  %26 = zext i8 %25 to i32
  %27 = load ptr, ptr %7, align 8, !tbaa !57
  %28 = load i32, ptr %10, align 4, !tbaa !9
  %29 = add nsw i32 %28, 1
  %30 = sext i32 %29 to i64
  %31 = getelementptr inbounds i8, ptr %27, i64 %30
  %32 = load i8, ptr %31, align 1, !tbaa !27
  %33 = zext i8 %32 to i32
  %34 = mul nsw i32 2, %33
  %35 = add nsw i32 %26, %34
  %36 = load ptr, ptr %7, align 8, !tbaa !57
  %37 = load i32, ptr %10, align 4, !tbaa !9
  %38 = add nsw i32 %37, 1
  %39 = add nsw i32 %38, 1
  %40 = sext i32 %39 to i64
  %41 = getelementptr inbounds i8, ptr %36, i64 %40
  %42 = load i8, ptr %41, align 1, !tbaa !27
  %43 = zext i8 %42 to i32
  %44 = add nsw i32 %35, %43
  %45 = add nsw i32 %44, 2
  %46 = ashr i32 %45, 2
  %47 = trunc i32 %46 to i8
  %48 = load ptr, ptr %5, align 8, !tbaa !57
  %49 = load i32, ptr %10, align 4, !tbaa !9
  %50 = sext i32 %49 to i64
  %51 = load i64, ptr %8, align 8, !tbaa !107
  %52 = mul nsw i64 %50, %51
  %53 = load i32, ptr %9, align 4, !tbaa !9
  %54 = sext i32 %53 to i64
  %55 = add nsw i64 %52, %54
  %56 = getelementptr inbounds i8, ptr %48, i64 %55
  store i8 %47, ptr %56, align 1, !tbaa !27
  br label %57

57:                                               ; preds = %18
  %58 = load i32, ptr %9, align 4, !tbaa !9
  %59 = add nsw i32 %58, 1
  store i32 %59, ptr %9, align 4, !tbaa !9
  br label %15, !llvm.loop !116

60:                                               ; preds = %15
  br label %61

61:                                               ; preds = %60
  %62 = load i32, ptr %10, align 4, !tbaa !9
  %63 = add nsw i32 %62, 1
  store i32 %63, ptr %10, align 4, !tbaa !9
  br label %11, !llvm.loop !117

64:                                               ; preds = %11
  call void @llvm.lifetime.end.p0(i64 4, ptr %10) #10
  call void @llvm.lifetime.end.p0(i64 4, ptr %9) #10
  ret void
}