; Function Attrs: nofree norecurse nosync nounwind memory(argmem: readwrite) uwtable
define internal void @intra_pred_lp_left(ptr noundef writeonly captures(none) %0, ptr readnone captures(none) %1, ptr noundef readonly captures(none) %2, i64 noundef %3) #9 {
  %invariant.gep = getelementptr inbounds nuw i8, ptr %2, i64 1
  br label %.preheader

.preheader:                                       ; preds = %4, %23
  %indvars.iv17 = phi i64 [ 0, %4 ], [ %indvars.iv.next18, %23 ]
  %5 = getelementptr inbounds nuw i8, ptr %2, i64 %indvars.iv17
  %gep = getelementptr inbounds nuw i8, ptr %invariant.gep, i64 %indvars.iv17
  %6 = getelementptr inbounds nuw i8, ptr %5, i64 2
  %7 = mul nsw i64 %3, %indvars.iv17
  %8 = getelementptr i8, ptr %0, i64 %7
  br label %9

9:                                                ; preds = %.preheader, %9
  %indvars.iv = phi i64 [ 0, %.preheader ], [ %indvars.iv.next, %9 ]
  %10 = load i8, ptr %5, align 1, !tbaa !24
  %11 = zext i8 %10 to i16
  %12 = load i8, ptr %gep, align 1, !tbaa !24
  %13 = zext i8 %12 to i16
  %14 = shl nuw nsw i16 %13, 1
  %15 = load i8, ptr %6, align 1, !tbaa !24
  %16 = zext i8 %15 to i16
  %17 = add nuw nsw i16 %11, 2
  %18 = add nuw nsw i16 %17, %14
  %19 = add nuw nsw i16 %18, %16
  %20 = lshr i16 %19, 2
  %21 = trunc nuw i16 %20 to i8
  %22 = getelementptr i8, ptr %8, i64 %indvars.iv
  store i8 %21, ptr %22, align 1, !tbaa !24
  %indvars.iv.next = add nuw nsw i64 %indvars.iv, 1
  %exitcond.not = icmp eq i64 %indvars.iv.next, 8
  br i1 %exitcond.not, label %23, label %9, !llvm.loop !104

23:                                               ; preds = %9
  %indvars.iv.next18 = add nuw nsw i64 %indvars.iv17, 1
  %exitcond20.not = icmp eq i64 %indvars.iv.next18, 8
  br i1 %exitcond20.not, label %24, label %.preheader, !llvm.loop !105

24:                                               ; preds = %23
  ret void
}